; Function Attrs: mustprogress nounwind uwtable
define internal noundef ptr @_ZN6evmone8advanced12_GLOBAL__N_19op_createILNS_6OpcodeE245EEEPKNS0_11InstructionES6_RNS0_22AdvancedExecutionStateE(ptr noundef readonly captures(ret: address, provenance) %0, ptr noundef nonnull align 8 dereferenceable(564) %1) #4 {
  %3 = getelementptr inbounds nuw i8, ptr %1, i64 560
  %4 = load i32, ptr %3, align 8, !tbaa !201
  %5 = zext i32 %4 to i64
  %6 = getelementptr inbounds nuw i8, ptr %0, i64 8
  %7 = load i64, ptr %6, align 8, !tbaa !77
  %8 = sub nsw i64 %5, %7
  %9 = getelementptr inbounds nuw i8, ptr %1, i64 544
  %10 = load i64, ptr %9, align 8, !tbaa !106
  %11 = add nsw i64 %10, %8
  store i64 %11, ptr %9, align 8, !tbaa !106
  %12 = getelementptr inbounds nuw i8, ptr %1, i64 552
  %.sroa.0.0.copyload.i = load ptr, ptr %12, align 8, !tbaa !57
  %13 = tail call { i32, i64 } @_ZN6evmone5instr4core11create_implILNS_6OpcodeE245EEENS_6ResultENS_8StackTopElRNS_14ExecutionStateE(ptr %.sroa.0.0.copyload.i, i64 noundef %11, ptr noundef nonnull align 8 dereferenceable(564) %1) #26
  %14 = extractvalue { i32, i64 } %13, 0
  %15 = extractvalue { i32, i64 } %13, 1
  store i64 %15, ptr %9, align 8, !tbaa !106
  %16 = load ptr, ptr %12, align 8, !tbaa !67
  %17 = getelementptr inbounds i8, ptr %16, i64 -96
  call void @llvm.assume(i1 true) [ "align"(ptr %17, i64 32) ]
  %18 = ptrtoint ptr %17 to i64
  store i64 %18, ptr %12, align 8, !tbaa !57
  %.not = icmp eq i32 %14, 0
  br i1 %.not, label %21, label %19

19:                                               ; preds = %2
  %20 = getelementptr inbounds nuw i8, ptr %1, i64 120
  store i32 %14, ptr %20, align 8, !tbaa !3
  br label %28

21:                                               ; preds = %2
  %22 = sub nsw i64 %15, %8
  store i64 %22, ptr %9, align 8, !tbaa !106
  %23 = icmp slt i64 %22, 0
  br i1 %23, label %24, label %26

24:                                               ; preds = %21
  %25 = getelementptr inbounds nuw i8, ptr %1, i64 120
  store i32 3, ptr %25, align 8, !tbaa !3
  br label %28

26:                                               ; preds = %21
  %27 = getelementptr inbounds nuw i8, ptr %0, i64 16
  br label %28

28:                                               ; preds = %26, %24, %19
  %.0 = phi ptr [ null, %19 ], [ null, %24 ], [ %27, %26 ]
  ret ptr %.0
}